target datalayout = "e-m:e-p270:32:32-p271:32:32-p272:64:64-i64:64-i128:128-f80:128-n8:16:32:64-S128"
target triple = "x86_64-pc-linux-gnu"

%struct.FWCfgState = type { %struct.SysBusDevice, i16, [2 x ptr], ptr, ptr, i16, i32, %struct.Notifier, i32, i8, i64, ptr, %struct.MemoryRegion, i8, i64, i64, i64 }
%struct.SysBusDevice = type { %struct.DeviceState, i32, [32 x %struct.anon], i32, [32 x i32] }
%struct.DeviceState = type { %struct.Object, ptr, ptr, i8, i8, i64, i32, i8, ptr, %struct.NamedGPIOListHead, %struct.NamedClockListHead, %struct.BusStateHead, i32, i32, i32, %struct.ResettableState, ptr, %struct.MemReentrancyGuard }
%struct.Object = type { ptr, ptr, ptr, i32, ptr }
%struct.NamedGPIOListHead = type { ptr }
%struct.NamedClockListHead = type { ptr }
%struct.BusStateHead = type { ptr }
%struct.ResettableState = type { i32, i8, i8 }
%struct.MemReentrancyGuard = type { i8 }
%struct.anon = type { i64, ptr }
%struct.Notifier = type { ptr, %struct.anon.0 }
%struct.anon.0 = type { ptr, ptr }
%struct.MemoryRegion = type { %struct.Object, i8, i8, i8, i8, i8, i8, i8, i8, i8, i8, ptr, ptr, ptr, ptr, ptr, ptr, i32, i128, i64, ptr, i64, i8, i8, i8, i8, ptr, i64, i32, %union.anon, %union.anon.1, %union.anon.2, ptr, i32, ptr, ptr, i8 }
%union.anon = type { %struct.QTailQLink }
%struct.QTailQLink = type { ptr, ptr }
%union.anon.1 = type { %struct.QTailQLink }
%union.anon.2 = type { %struct.QTailQLink }

; Function Attrs: nounwind sspstrong uwtable
define internal void @fw_cfg_dma_mem_write(ptr noundef %0, i64 noundef %1, i64 noundef %2, i32 noundef %3) #0 {
  %5 = alloca ptr, align 8
  %6 = alloca i64, align 8
  %7 = alloca i64, align 8
  %8 = alloca i32, align 4
  %9 = alloca ptr, align 8
  store ptr %0, ptr %5, align 8
  store i64 %1, ptr %6, align 8
  store i64 %2, ptr %7, align 8
  store i32 %3, ptr %8, align 4
  call void @llvm.lifetime.start.p0(i64 8, ptr %9) #18
  %10 = load ptr, ptr %5, align 8
  store ptr %10, ptr %9, align 8
  %11 = load i32, ptr %8, align 4
  %12 = icmp eq i32 %11, 4
  br i1 %12, label %13, label %33

13:                                               ; preds = %4
  %14 = load i64, ptr %6, align 8
  %15 = icmp eq i64 %14, 0
  br i1 %15, label %16, label %21

16:                                               ; preds = %13
  %17 = load i64, ptr %7, align 8
  %18 = shl i64 %17, 32
  %19 = load ptr, ptr %9, align 8
  %20 = getelementptr inbounds nuw %struct.FWCfgState, ptr %19, i32 0, i32 10
  store i64 %18, ptr %20, align 8
  br label %32

21:                                               ; preds = %13
  %22 = load i64, ptr %6, align 8
  %23 = icmp eq i64 %22, 4
  br i1 %23, label %24, label %31

24:                                               ; preds = %21
  %25 = load i64, ptr %7, align 8
  %26 = load ptr, ptr %9, align 8
  %27 = getelementptr inbounds nuw %struct.FWCfgState, ptr %26, i32 0, i32 10
  %28 = load i64, ptr %27, align 8
  %29 = or i64 %28, %25
  store i64 %29, ptr %27, align 8
  %30 = load ptr, ptr %9, align 8
  call void @fw_cfg_dma_transfer(ptr noundef %30)
  br label %31

31:                                               ; preds = %24, %21
  br label %32

32:                                               ; preds = %31, %16
  br label %45

33:                                               ; preds = %4
  %34 = load i32, ptr %8, align 4
  %35 = icmp eq i32 %34, 8
  br i1 %35, label %36, label %44

36:                                               ; preds = %33
  %37 = load i64, ptr %6, align 8
  %38 = icmp eq i64 %37, 0
  br i1 %38, label %39, label %44

39:                                               ; preds = %36
  %40 = load i64, ptr %7, align 8
  %41 = load ptr, ptr %9, align 8
  %42 = getelementptr inbounds nuw %struct.FWCfgState, ptr %41, i32 0, i32 10
  store i64 %40, ptr %42, align 8
  %43 = load ptr, ptr %9, align 8
  call void @fw_cfg_dma_transfer(ptr noundef %43)
  br label %44

44:                                               ; preds = %39, %36, %33
  br label %45

45:                                               ; preds = %44, %32
  call void @llvm.lifetime.end.p0(i64 8, ptr %9) #18
  ret void
}