; Function Attrs: nounwind sspstrong uwtable
define internal void @fw_cfg_dma_mem_write(ptr noundef %0, i64 noundef %1, i64 noundef %2, i32 noundef %3) #2 {
  %5 = icmp eq i32 %3, 4
  br i1 %5, label %6, label %14

6:                                                ; preds = %4
  switch i64 %1, label %19 [
    i64 0, label %7
    i64 4, label %10
  ]

7:                                                ; preds = %6
  %8 = shl i64 %2, 32
  %9 = getelementptr inbounds nuw i8, ptr %0, i64 888
  store i64 %8, ptr %9, align 8
  br label %19

10:                                               ; preds = %6
  %11 = getelementptr inbounds nuw i8, ptr %0, i64 888
  %12 = load i64, ptr %11, align 8
  %13 = or i64 %12, %2
  store i64 %13, ptr %11, align 8
  tail call fastcc void @fw_cfg_dma_transfer(ptr noundef %0)
  br label %19

14:                                               ; preds = %4
  %15 = icmp eq i32 %3, 8
  %16 = icmp eq i64 %1, 0
  %or.cond = and i1 %16, %15
  br i1 %or.cond, label %17, label %19

17:                                               ; preds = %14
  %18 = getelementptr inbounds nuw i8, ptr %0, i64 888
  store i64 %2, ptr %18, align 8
  tail call fastcc void @fw_cfg_dma_transfer(ptr noundef %0)
  br label %19

19:                                               ; preds = %6, %14, %17, %7, %10
  ret void
}